; Function Attrs: mustprogress nounwind uwtable
define hidden void @_ZN15G1CollectedHeap35update_parallel_gc_threads_cpu_timeEv(ptr nocapture noundef nonnull readonly align 8 dereferenceable(1488) %0) local_unnamed_addr #0 align 2 {
  %2 = alloca %class.ThreadTotalCPUTimeClosure, align 8
  %3 = load i8, ptr @UsePerfData, align 1
  %4 = trunc i8 %3 to i1
  br i1 %4, label %5, label %12

5:                                                ; preds = %1
  %6 = tail call noundef zeroext i1 @_ZN2os28is_thread_cpu_time_supportedEv() #23
  br i1 %6, label %7, label %12

7:                                                ; preds = %5
  store ptr getelementptr inbounds inrange(-16, 8) (i8, ptr @_ZTV25ThreadTotalCPUTimeClosure, i64 16), ptr %2, align 8
  %8 = getelementptr inbounds i8, ptr %2, i64 8
  store i64 0, ptr %8, align 8
  %9 = getelementptr inbounds i8, ptr %2, i64 16
  store i32 1, ptr %9, align 8
  %10 = getelementptr inbounds i8, ptr %0, i64 128
  %11 = load ptr, ptr %10, align 8
  call void @_ZNK13WorkerThreads10threads_doEP13ThreadClosure(ptr noundef nonnull align 8 dereferenceable(120) %11, ptr noundef nonnull %2) #23
  call void @_ZN25ThreadTotalCPUTimeClosureD1Ev(ptr noundef nonnull align 8 dereferenceable(20) %2) #23
  call void @_ZN15CPUTimeCounters25publish_gc_total_cpu_timeEv() #23
  br label %12

12:                                               ; preds = %1, %5, %7
  ret void
}